target datalayout = "e-m:e-p270:32:32-p271:32:32-p272:64:64-i64:64-i128:128-f80:128-n8:16:32:64-S128"
target triple = "x86_64-pc-linux-gnu"

%struct.TupleTableSlotOps = type { i64, ptr, ptr, ptr, ptr, ptr, ptr, ptr, ptr, ptr, ptr, ptr, ptr }
%struct.PlanState = type { i32, ptr, ptr, ptr, ptr, ptr, ptr, ptr, ptr, ptr, ptr, ptr, ptr, ptr, ptr, ptr, ptr, ptr, i8, ptr, ptr, ptr, ptr, ptr, i8, i8, i8, i8, i8, i8, i8, i8 }
%struct.TupleTableSlot = type { i32, i16, i16, ptr, ptr, ptr, ptr, ptr, %struct.ItemPointerData, i32 }
%struct.ItemPointerData = type { %struct.BlockIdData, i16 }
%struct.BlockIdData = type { i16, i16 }

@TTSOpsVirtual = external constant %struct.TupleTableSlotOps, align 8

; Function Attrs: nounwind uwtable
define dso_local ptr @ExecGetResultSlotOps(ptr noundef %0, ptr noundef %1) #0 {
  %3 = alloca ptr, align 8
  %4 = alloca ptr, align 8
  %5 = alloca ptr, align 8
  store ptr %0, ptr %4, align 8
  store ptr %1, ptr %5, align 8
  %6 = load ptr, ptr %4, align 8
  %7 = getelementptr inbounds nuw %struct.PlanState, ptr %6, i32 0, i32 31
  %8 = load i8, ptr %7, align 1, !range !6, !noundef !7
  %9 = trunc i8 %8 to i1
  br i1 %9, label %10, label %29

10:                                               ; preds = %2
  %11 = load ptr, ptr %4, align 8
  %12 = getelementptr inbounds nuw %struct.PlanState, ptr %11, i32 0, i32 23
  %13 = load ptr, ptr %12, align 8
  %14 = icmp ne ptr %13, null
  br i1 %14, label %15, label %29

15:                                               ; preds = %10
  %16 = load ptr, ptr %5, align 8
  %17 = icmp ne ptr %16, null
  br i1 %17, label %18, label %25

18:                                               ; preds = %15
  %19 = load ptr, ptr %4, align 8
  %20 = getelementptr inbounds nuw %struct.PlanState, ptr %19, i32 0, i32 27
  %21 = load i8, ptr %20, align 1, !range !6, !noundef !7
  %22 = trunc i8 %21 to i1
  %23 = load ptr, ptr %5, align 8
  %24 = zext i1 %22 to i8
  store i8 %24, ptr %23, align 1
  br label %25

25:                                               ; preds = %18, %15
  %26 = load ptr, ptr %4, align 8
  %27 = getelementptr inbounds nuw %struct.PlanState, ptr %26, i32 0, i32 23
  %28 = load ptr, ptr %27, align 8
  store ptr %28, ptr %3, align 8
  br label %76

29:                                               ; preds = %10, %2
  %30 = load ptr, ptr %5, align 8
  %31 = icmp ne ptr %30, null
  br i1 %31, label %32, label %64

32:                                               ; preds = %29
  %33 = load ptr, ptr %4, align 8
  %34 = getelementptr inbounds nuw %struct.PlanState, ptr %33, i32 0, i32 31
  %35 = load i8, ptr %34, align 1, !range !6, !noundef !7
  %36 = trunc i8 %35 to i1
  br i1 %36, label %37, label %44

37:                                               ; preds = %32
  %38 = load ptr, ptr %4, align 8
  %39 = getelementptr inbounds nuw %struct.PlanState, ptr %38, i32 0, i32 27
  %40 = load i8, ptr %39, align 1, !range !6, !noundef !7
  %41 = trunc i8 %40 to i1
  %42 = load ptr, ptr %5, align 8
  %43 = zext i1 %41 to i8
  store i8 %43, ptr %42, align 1
  br label %63

44:                                               ; preds = %32
  %45 = load ptr, ptr %4, align 8
  %46 = getelementptr inbounds nuw %struct.PlanState, ptr %45, i32 0, i32 15
  %47 = load ptr, ptr %46, align 8
  %48 = icmp ne ptr %47, null
  br i1 %48, label %49, label %60

49:                                               ; preds = %44
  %50 = load ptr, ptr %4, align 8
  %51 = getelementptr inbounds nuw %struct.PlanState, ptr %50, i32 0, i32 15
  %52 = load ptr, ptr %51, align 8
  %53 = getelementptr inbounds nuw %struct.TupleTableSlot, ptr %52, i32 0, i32 1
  %54 = load i16, ptr %53, align 4
  %55 = zext i16 %54 to i32
  %56 = and i32 %55, 16
  %57 = icmp ne i32 %56, 0
  %58 = load ptr, ptr %5, align 8
  %59 = zext i1 %57 to i8
  store i8 %59, ptr %58, align 1
  br label %62

60:                                               ; preds = %44
  %61 = load ptr, ptr %5, align 8
  store i8 0, ptr %61, align 1
  br label %62

62:                                               ; preds = %60, %49
  br label %63

63:                                               ; preds = %62, %37
  br label %64

64:                                               ; preds = %63, %29
  %65 = load ptr, ptr %4, align 8
  %66 = getelementptr inbounds nuw %struct.PlanState, ptr %65, i32 0, i32 15
  %67 = load ptr, ptr %66, align 8
  %68 = icmp ne ptr %67, null
  br i1 %68, label %70, label %69

69:                                               ; preds = %64
  store ptr @TTSOpsVirtual, ptr %3, align 8
  br label %76

70:                                               ; preds = %64
  %71 = load ptr, ptr %4, align 8
  %72 = getelementptr inbounds nuw %struct.PlanState, ptr %71, i32 0, i32 15
  %73 = load ptr, ptr %72, align 8
  %74 = getelementptr inbounds nuw %struct.TupleTableSlot, ptr %73, i32 0, i32 3
  %75 = load ptr, ptr %74, align 8
  store ptr %75, ptr %3, align 8
  br label %76

76:                                               ; preds = %70, %69, %25
  %77 = load ptr, ptr %3, align 8
  ret ptr %77
}

; Function Attrs: nounwind uwtable
define dso_local ptr @ExecGetCommonSlotOps(ptr noundef %0, i32 noundef %1) #0 {
  %3 = alloca ptr, align 8
  %4 = alloca ptr, align 8
  %5 = alloca i32, align 4
  %6 = alloca ptr, align 8
  %7 = alloca i8, align 1
  %8 = alloca i32, align 4
  %9 = alloca i32, align 4
  %10 = alloca ptr, align 8
  store ptr %0, ptr %4, align 8
  store i32 %1, ptr %5, align 4
  call void @llvm.lifetime.start.p0(i64 8, ptr %6) #6
  call void @llvm.lifetime.start.p0(i64 1, ptr %7) #6
  %11 = load i32, ptr %5, align 4
  %12 = icmp sle i32 %11, 0
  br i1 %12, label %13, label %14

13:                                               ; preds = %2
  store ptr null, ptr %3, align 8
  store i32 1, ptr %8, align 4
  br label %54

14:                                               ; preds = %2
  %15 = load ptr, ptr %4, align 8
  %16 = getelementptr inbounds ptr, ptr %15, i64 0
  %17 = load ptr, ptr %16, align 8
  %18 = call ptr @ExecGetResultSlotOps(ptr noundef %17, ptr noundef %7)
  store ptr %18, ptr %6, align 8
  %19 = load i8, ptr %7, align 1, !range !6, !noundef !7
  %20 = trunc i8 %19 to i1
  br i1 %20, label %22, label %21

21:                                               ; preds = %14
  store ptr null, ptr %3, align 8
  store i32 1, ptr %8, align 4
  br label %54

22:                                               ; preds = %14
  call void @llvm.lifetime.start.p0(i64 4, ptr %9) #6
  store i32 1, ptr %9, align 4
  br label %23

23:                                               ; preds = %47, %22
  %24 = load i32, ptr %9, align 4
  %25 = load i32, ptr %5, align 4
  %26 = icmp slt i32 %24, %25
  br i1 %26, label %28, label %27

27:                                               ; preds = %23
  store i32 2, ptr %8, align 4
  br label %50

28:                                               ; preds = %23
  call void @llvm.lifetime.start.p0(i64 8, ptr %10) #6
  %29 = load ptr, ptr %4, align 8
  %30 = load i32, ptr %9, align 4
  %31 = sext i32 %30 to i64
  %32 = getelementptr inbounds ptr, ptr %29, i64 %31
  %33 = load ptr, ptr %32, align 8
  %34 = call ptr @ExecGetResultSlotOps(ptr noundef %33, ptr noundef %7)
  store ptr %34, ptr %10, align 8
  %35 = load i8, ptr %7, align 1, !range !6, !noundef !7
  %36 = trunc i8 %35 to i1
  br i1 %36, label %38, label %37

37:                                               ; preds = %28
  store ptr null, ptr %3, align 8
  store i32 1, ptr %8, align 4
  br label %44

38:                                               ; preds = %28
  %39 = load ptr, ptr %6, align 8
  %40 = load ptr, ptr %10, align 8
  %41 = icmp ne ptr %39, %40
  br i1 %41, label %42, label %43

42:                                               ; preds = %38
  store ptr null, ptr %3, align 8
  store i32 1, ptr %8, align 4
  br label %44

43:                                               ; preds = %38
  store i32 0, ptr %8, align 4
  br label %44

44:                                               ; preds = %43, %42, %37
  call void @llvm.lifetime.end.p0(i64 8, ptr %10) #6
  %45 = load i32, ptr %8, align 4
  switch i32 %45, label %50 [
    i32 0, label %46
  ]

46:                                               ; preds = %44
  br label %47

47:                                               ; preds = %46
  %48 = load i32, ptr %9, align 4
  %49 = add i32 %48, 1
  store i32 %49, ptr %9, align 4
  br label %23, !llvm.loop !10

50:                                               ; preds = %44, %27
  call void @llvm.lifetime.end.p0(i64 4, ptr %9) #6
  %51 = load i32, ptr %8, align 4
  switch i32 %51, label %54 [
    i32 2, label %52
  ]

52:                                               ; preds = %50
  %53 = load ptr, ptr %6, align 8
  store ptr %53, ptr %3, align 8
  store i32 1, ptr %8, align 4
  br label %54

54:                                               ; preds = %52, %50, %21, %13
  call void @llvm.lifetime.end.p0(i64 1, ptr %7) #6
  call void @llvm.lifetime.end.p0(i64 8, ptr %6) #6
  %55 = load ptr, ptr %3, align 8
  ret ptr %55
}