; Function Attrs: nofree norecurse nosync nounwind memory(read, inaccessiblemem: none) uwtable
define dso_local ptr @ExecGetCommonSlotOps(ptr noundef readonly captures(none) %0, i32 noundef %1) local_unnamed_addr #5 {
  %3 = icmp slt i32 %1, 1
  br i1 %3, label %.critedge, label %4

4:                                                ; preds = %2
  %5 = load ptr, ptr %0, align 8
  %6 = getelementptr inbounds nuw i8, ptr %5, i64 199
  %7 = load i8, ptr %6, align 1, !range !8, !noundef !9
  %8 = trunc nuw i8 %7 to i1
  br i1 %8, label %9, label %.thread.i

9:                                                ; preds = %4
  %10 = getelementptr inbounds nuw i8, ptr %5, i64 184
  %11 = load ptr, ptr %10, align 8
  %.not.i = icmp eq ptr %11, null
  %12 = getelementptr inbounds nuw i8, ptr %5, i64 195
  %13 = load i8, ptr %12, align 1, !range !8, !noundef !9
  br i1 %.not.i, label %.sink.split.i, label %ExecGetResultSlotOps.exit

.thread.i:                                        ; preds = %4
  %14 = getelementptr inbounds nuw i8, ptr %5, i64 120
  %15 = load ptr, ptr %14, align 8
  %.not21.i = icmp eq ptr %15, null
  br i1 %.not21.i, label %.critedge, label %.sink.split.i.thread37

.sink.split.i.thread37:                           ; preds = %.thread.i
  %16 = getelementptr inbounds nuw i8, ptr %15, i64 4
  %17 = load i16, ptr %16, align 4
  %18 = trunc i16 %17 to i8
  %19 = lshr i8 %18, 4
  br label %20

.sink.split.i:                                    ; preds = %9
  %.phi.trans.insert = getelementptr inbounds nuw i8, ptr %5, i64 120
  %.pre = load ptr, ptr %.phi.trans.insert, align 8
  %.not22.i = icmp eq ptr %.pre, null
  br i1 %.not22.i, label %ExecGetResultSlotOps.exit, label %20

20:                                               ; preds = %.sink.split.i.thread37, %.sink.split.i
  %.sink.i40 = phi i8 [ %19, %.sink.split.i.thread37 ], [ %13, %.sink.split.i ]
  %21 = phi ptr [ %15, %.sink.split.i.thread37 ], [ %.pre, %.sink.split.i ]
  %22 = getelementptr inbounds nuw i8, ptr %21, i64 8
  %23 = load ptr, ptr %22, align 8
  br label %ExecGetResultSlotOps.exit

ExecGetResultSlotOps.exit:                        ; preds = %9, %.sink.split.i, %20
  %.028 = phi i8 [ %13, %.sink.split.i ], [ %.sink.i40, %20 ], [ %13, %9 ]
  %.0.i = phi ptr [ @TTSOpsVirtual, %.sink.split.i ], [ %23, %20 ], [ %11, %9 ]
  %24 = trunc i8 %.028 to i1
  br i1 %24, label %.preheader, label %.critedge

.preheader:                                       ; preds = %ExecGetResultSlotOps.exit
  %.not1729.not = icmp eq i32 %1, 1
  br i1 %.not1729.not, label %.critedge, label %.lr.ph.preheader

.lr.ph.preheader:                                 ; preds = %.preheader
  %wide.trip.count = zext nneg i32 %1 to i64
  br label %.lr.ph

25:                                               ; preds = %ExecGetResultSlotOps.exit26
  %indvars.iv.next = add nuw nsw i64 %indvars.iv, 1
  %exitcond.not = icmp eq i64 %indvars.iv.next, %wide.trip.count
  br i1 %exitcond.not, label %.critedge, label %.lr.ph, !llvm.loop !10

.lr.ph:                                           ; preds = %.lr.ph.preheader, %25
  %indvars.iv = phi i64 [ 1, %.lr.ph.preheader ], [ %indvars.iv.next, %25 ]
  %26 = getelementptr inbounds nuw ptr, ptr %0, i64 %indvars.iv
  %27 = load ptr, ptr %26, align 8
  %28 = getelementptr inbounds nuw i8, ptr %27, i64 199
  %29 = load i8, ptr %28, align 1, !range !8, !noundef !9
  %30 = trunc nuw i8 %29 to i1
  br i1 %30, label %31, label %.thread.i18

31:                                               ; preds = %.lr.ph
  %32 = getelementptr inbounds nuw i8, ptr %27, i64 184
  %33 = load ptr, ptr %32, align 8
  %.not.i24 = icmp eq ptr %33, null
  %34 = getelementptr inbounds nuw i8, ptr %27, i64 195
  %35 = load i8, ptr %34, align 1, !range !8, !noundef !9
  br i1 %.not.i24, label %.sink.split.i20, label %ExecGetResultSlotOps.exit26

.thread.i18:                                      ; preds = %.lr.ph
  %36 = getelementptr inbounds nuw i8, ptr %27, i64 120
  %37 = load ptr, ptr %36, align 8
  %.not21.i19 = icmp eq ptr %37, null
  br i1 %.not21.i19, label %.critedge, label %.sink.split.i20.thread45

.sink.split.i20.thread45:                         ; preds = %.thread.i18
  %38 = getelementptr inbounds nuw i8, ptr %37, i64 4
  %39 = load i16, ptr %38, align 4
  %40 = trunc i16 %39 to i8
  %41 = lshr i8 %40, 4
  br label %42

.sink.split.i20:                                  ; preds = %31
  %.phi.trans.insert33 = getelementptr inbounds nuw i8, ptr %27, i64 120
  %.pre34 = load ptr, ptr %.phi.trans.insert33, align 8
  %.not22.i22 = icmp eq ptr %.pre34, null
  br i1 %.not22.i22, label %ExecGetResultSlotOps.exit26, label %42

42:                                               ; preds = %.sink.split.i20.thread45, %.sink.split.i20
  %.sink.i2148 = phi i8 [ %41, %.sink.split.i20.thread45 ], [ %35, %.sink.split.i20 ]
  %43 = phi ptr [ %37, %.sink.split.i20.thread45 ], [ %.pre34, %.sink.split.i20 ]
  %44 = getelementptr inbounds nuw i8, ptr %43, i64 8
  %45 = load ptr, ptr %44, align 8
  br label %ExecGetResultSlotOps.exit26

ExecGetResultSlotOps.exit26:                      ; preds = %31, %.sink.split.i20, %42
  %.1 = phi i8 [ %35, %.sink.split.i20 ], [ %.sink.i2148, %42 ], [ %35, %31 ]
  %.0.i23 = phi ptr [ @TTSOpsVirtual, %.sink.split.i20 ], [ %45, %42 ], [ %33, %31 ]
  %46 = trunc i8 %.1 to i1
  %.not = icmp eq ptr %.0.i, %.0.i23
  %or.cond = select i1 %46, i1 %.not, i1 false
  br i1 %or.cond, label %25, label %.critedge

.critedge:                                        ; preds = %.thread.i18, %ExecGetResultSlotOps.exit26, %25, %.thread.i, %.preheader, %ExecGetResultSlotOps.exit, %2
  %.0 = phi ptr [ null, %2 ], [ null, %ExecGetResultSlotOps.exit ], [ %.0.i, %.preheader ], [ null, %.thread.i ], [ null, %.thread.i18 ], [ null, %ExecGetResultSlotOps.exit26 ], [ %.0.i, %25 ]
  ret ptr %.0
}